target datalayout = "e-m:e-p270:32:32-p271:32:32-p272:64:64-i64:64-i128:128-f80:128-n8:16:32:64-S128"
target triple = "x86_64-pc-linux-gnu"

%struct.redisServer = type { i32, i64, ptr, ptr, ptr, i32, i32, i32, i32, i32, ptr, ptr, ptr, ptr, ptr, i32, i32, i32, i32, i64, i32, i32, i32, i32, ptr, i32, i32, [41 x i8], i32, i64, i32, i32, i32, ptr, ptr, i32, i32, i64, ptr, ptr, ptr, ptr, [2 x i32], i32, i32, i32, i32, i32, i32, [16 x ptr], i32, ptr, ptr, i32, [8 x %struct.connListener], i32, %struct.connListener, ptr, ptr, ptr, ptr, ptr, ptr, ptr, ptr, ptr, ptr, i32, ptr, i32, ptr, [3 x %struct.pause_event], [256 x i8], ptr, i64, i32, i32, [128 x i32], i32, i32, i64, i32, i32, i32, i32, i32, i64, i64, i64, i64, i64, i64, i64, i64, i64, i64, double, i64, i64, i64, i64, i64, i64, i64, i64, i64, i64, i64, i64, i64, i64, i64, i64, i64, i64, i64, i64, i64, double, i64, i64, i64, i64, i64, ptr, i64, i64, i64, %struct.malloc_stats, i64, i64, i64, i64, i64, i64, i64, i64, i64, i64, i64, i64, double, [4 x i64], i64, i64, i64, i64, [128 x i64], [128 x i64], i64, i64, [7 x %struct.anon], i64, i64, i64, i64, i64, i64, [4 x %struct.durationStats], i32, i32, i32, i32, i32, i32, i32, i32, i32, i32, i32, i32, i64, i32, i32, i32, i32, i64, i64, i32, i32, i32, i32, i32, ptr, [3 x %struct.clientBufferLimitsConfig], i32, i32, i32, ptr, i32, i32, i32, i32, i32, i32, ptr, ptr, i32, i32, i64, i64, i64, i64, i64, i32, i32, ptr, i32, i32, i64, i64, i64, i64, i64, i32, i32, i64, i32, i32, i32, i32, i32, i32, i32, i32, ptr, i32, i64, i64, i64, i64, i32, ptr, i32, ptr, i32, i32, i32, i64, i64, i64, i64, i32, i32, i32, i32, i32, i32, ptr, i32, i32, ptr, i32, i32, i32, [2 x i32], i32, %struct.redisOpArray, i32, ptr, i32, ptr, i32, i32, i32, i32, i32, i32, i32, [41 x i8], [41 x i8], i64, i64, i64, i64, i32, i32, ptr, i64, i64, %struct.replDataBuf, i64, i64, i32, i32, i32, i32, i32, i32, i32, i32, i32, i64, ptr, i64, ptr, ptr, ptr, i32, i32, ptr, ptr, i32, i32, i32, i64, i64, i64, i64, ptr, ptr, i32, ptr, i64, i32, i32, i32, i64, i32, i32, i32, i32, ptr, i32, i32, [41 x i8], i64, i32, ptr, i32, i32, i64, i64, i32, i32, i32, i32, i32, i64, [3 x i32], i32, i32, i32, [10 x i32], ptr, ptr, i32, i64, ptr, ptr, i32, i32, i32, i32, i64, i64, i64, i64, i64, i64, i64, i64, i64, i64, i32, i32, i64, i64, i32, i64, i64, i64, i64, i64, ptr, ptr, i32, ptr, i32, i32, i32, i32, i64, i64, ptr, ptr, i32, i32, i32, i32, i32, ptr, ptr, ptr, i32, i32, i32, i32, i32, i32, i32, i64, i32, i32, i64, i32, i32, i32, i32, i32, i32, i32, i64, ptr, ptr, i64, ptr, i32, %struct.aclInfo, i32, i64, i32, i32, i32, %struct.redisTLSContextConfig, ptr, ptr, ptr, ptr, ptr, i64, i32, ptr, i32, i32, i32, i64, i32, ptr }
%struct.connListener = type { [16 x i32], i32, ptr, i32, i32, ptr, ptr }
%struct.pause_event = type { i32, i64 }
%struct.malloc_stats = type { i64, i64, i64, i64, i64, i64, i64, i64, i64, i64, i64 }
%struct.anon = type { i64, i64, [16 x i64], i32 }
%struct.durationStats = type { i64, i64, i64 }
%struct.clientBufferLimitsConfig = type { i64, i64, i64 }
%struct.redisOpArray = type { ptr, i32, i32 }
%struct.replDataBuf = type { ptr, i64, i64, i64, i64 }
%struct.aclInfo = type { i64, i64, i64, i64 }
%struct.redisTLSContextConfig = type { ptr, ptr, ptr, ptr, ptr, ptr, ptr, ptr, ptr, ptr, ptr, ptr, i32, i32, i32, i32 }
%struct._clusterNode = type { i64, [40 x i8], [40 x i8], i32, i64, [2048 x i8], ptr, i32, i32, i32, ptr, ptr, i64, i64, i64, i64, i64, i64, i64, i64, i64, [46 x i8], ptr, ptr, i32, i32, i32, ptr, ptr, ptr }
%struct.listIter = type { ptr, i32 }
%struct.listNode = type { ptr, ptr, ptr }
%struct.clusterNodeFailReport = type { ptr, i64 }

@server = external global %struct.redisServer, align 8

; Function Attrs: nounwind uwtable
define dso_local void @clusterNodeCleanupFailureReports(ptr noundef %0) #0 {
  %2 = alloca ptr, align 8
  %3 = alloca ptr, align 8
  %4 = alloca ptr, align 8
  %5 = alloca %struct.listIter, align 8
  %6 = alloca ptr, align 8
  %7 = alloca i64, align 8
  %8 = alloca i64, align 8
  store ptr %0, ptr %2, align 8, !tbaa !5
  call void @llvm.lifetime.start.p0(i64 8, ptr %3) #16
  %9 = load ptr, ptr %2, align 8, !tbaa !5
  %10 = getelementptr inbounds nuw %struct._clusterNode, ptr %9, i32 0, i32 29
  %11 = load ptr, ptr %10, align 8, !tbaa !104
  store ptr %11, ptr %3, align 8, !tbaa !62
  call void @llvm.lifetime.start.p0(i64 8, ptr %4) #16
  call void @llvm.lifetime.start.p0(i64 16, ptr %5) #16
  call void @llvm.lifetime.start.p0(i64 8, ptr %6) #16
  call void @llvm.lifetime.start.p0(i64 8, ptr %7) #16
  %12 = load i64, ptr getelementptr inbounds nuw (%struct.redisServer, ptr @server, i32 0, i32 382), align 8, !tbaa !166
  %13 = mul nsw i64 %12, 2
  store i64 %13, ptr %7, align 8, !tbaa !142
  call void @llvm.lifetime.start.p0(i64 8, ptr %8) #16
  %14 = call i64 @mstime()
  store i64 %14, ptr %8, align 8, !tbaa !142
  %15 = load ptr, ptr %3, align 8, !tbaa !62
  call void @listRewind(ptr noundef %15, ptr noundef %5)
  br label %16

16:                                               ; preds = %33, %1
  %17 = call ptr @listNext(ptr noundef %5)
  store ptr %17, ptr %4, align 8, !tbaa !200
  %18 = icmp ne ptr %17, null
  br i1 %18, label %19, label %34

19:                                               ; preds = %16
  %20 = load ptr, ptr %4, align 8, !tbaa !200
  %21 = getelementptr inbounds nuw %struct.listNode, ptr %20, i32 0, i32 2
  %22 = load ptr, ptr %21, align 8, !tbaa !201
  store ptr %22, ptr %6, align 8, !tbaa !203
  %23 = load i64, ptr %8, align 8, !tbaa !142
  %24 = load ptr, ptr %6, align 8, !tbaa !203
  %25 = getelementptr inbounds nuw %struct.clusterNodeFailReport, ptr %24, i32 0, i32 1
  %26 = load i64, ptr %25, align 8, !tbaa !207
  %27 = sub nsw i64 %23, %26
  %28 = load i64, ptr %7, align 8, !tbaa !142
  %29 = icmp sgt i64 %27, %28
  br i1 %29, label %30, label %33

30:                                               ; preds = %19
  %31 = load ptr, ptr %3, align 8, !tbaa !62
  %32 = load ptr, ptr %4, align 8, !tbaa !200
  call void @listDelNode(ptr noundef %31, ptr noundef %32)
  br label %33

33:                                               ; preds = %30, %19
  br label %16, !llvm.loop !209

34:                                               ; preds = %16
  call void @llvm.lifetime.end.p0(i64 8, ptr %8) #16
  call void @llvm.lifetime.end.p0(i64 8, ptr %7) #16
  call void @llvm.lifetime.end.p0(i64 8, ptr %6) #16
  call void @llvm.lifetime.end.p0(i64 16, ptr %5) #16
  call void @llvm.lifetime.end.p0(i64 8, ptr %4) #16
  call void @llvm.lifetime.end.p0(i64 8, ptr %3) #16
  ret void
}

; Function Attrs: nounwind uwtable
define dso_local i32 @clusterNodeDelFailureReport(ptr noundef %0, ptr noundef %1) #0 {
  %3 = alloca i32, align 4
  %4 = alloca ptr, align 8
  %5 = alloca ptr, align 8
  %6 = alloca ptr, align 8
  %7 = alloca ptr, align 8
  %8 = alloca %struct.listIter, align 8
  %9 = alloca ptr, align 8
  %10 = alloca i32, align 4
  store ptr %0, ptr %4, align 8, !tbaa !5
  store ptr %1, ptr %5, align 8, !tbaa !5
  call void @llvm.lifetime.start.p0(i64 8, ptr %6) #16
  %11 = load ptr, ptr %4, align 8, !tbaa !5
  %12 = getelementptr inbounds nuw %struct._clusterNode, ptr %11, i32 0, i32 29
  %13 = load ptr, ptr %12, align 8, !tbaa !104
  store ptr %13, ptr %6, align 8, !tbaa !62
  call void @llvm.lifetime.start.p0(i64 8, ptr %7) #16
  call void @llvm.lifetime.start.p0(i64 16, ptr %8) #16
  call void @llvm.lifetime.start.p0(i64 8, ptr %9) #16
  %14 = load ptr, ptr %6, align 8, !tbaa !62
  call void @listRewind(ptr noundef %14, ptr noundef %8)
  br label %15

15:                                               ; preds = %28, %2
  %16 = call ptr @listNext(ptr noundef %8)
  store ptr %16, ptr %7, align 8, !tbaa !200
  %17 = icmp ne ptr %16, null
  br i1 %17, label %18, label %29

18:                                               ; preds = %15
  %19 = load ptr, ptr %7, align 8, !tbaa !200
  %20 = getelementptr inbounds nuw %struct.listNode, ptr %19, i32 0, i32 2
  %21 = load ptr, ptr %20, align 8, !tbaa !201
  store ptr %21, ptr %9, align 8, !tbaa !203
  %22 = load ptr, ptr %9, align 8, !tbaa !203
  %23 = getelementptr inbounds nuw %struct.clusterNodeFailReport, ptr %22, i32 0, i32 0
  %24 = load ptr, ptr %23, align 8, !tbaa !205
  %25 = load ptr, ptr %5, align 8, !tbaa !5
  %26 = icmp eq ptr %24, %25
  br i1 %26, label %27, label %28

27:                                               ; preds = %18
  br label %29

28:                                               ; preds = %18
  br label %15, !llvm.loop !210

29:                                               ; preds = %27, %15
  %30 = load ptr, ptr %7, align 8, !tbaa !200
  %31 = icmp ne ptr %30, null
  br i1 %31, label %33, label %32

32:                                               ; preds = %29
  store i32 0, ptr %3, align 4
  store i32 1, ptr %10, align 4
  br label %37

33:                                               ; preds = %29
  %34 = load ptr, ptr %6, align 8, !tbaa !62
  %35 = load ptr, ptr %7, align 8, !tbaa !200
  call void @listDelNode(ptr noundef %34, ptr noundef %35)
  %36 = load ptr, ptr %4, align 8, !tbaa !5
  call void @clusterNodeCleanupFailureReports(ptr noundef %36)
  store i32 1, ptr %3, align 4
  store i32 1, ptr %10, align 4
  br label %37

37:                                               ; preds = %33, %32
  call void @llvm.lifetime.end.p0(i64 8, ptr %9) #16
  call void @llvm.lifetime.end.p0(i64 16, ptr %8) #16
  call void @llvm.lifetime.end.p0(i64 8, ptr %7) #16
  call void @llvm.lifetime.end.p0(i64 8, ptr %6) #16
  %38 = load i32, ptr %3, align 4
  ret i32 %38
}