; Function Attrs: nounwind uwtable
define dso_local range(i32 0, 2) i32 @clusterNodeDelFailureReport(ptr noundef readonly captures(none) %0, ptr noundef readnone captures(address) %1) local_unnamed_addr #3 {
  %3 = alloca %struct.listIter, align 8
  %4 = alloca %struct.listIter, align 8
  %5 = getelementptr inbounds nuw i8, ptr %0, i64 2360
  %6 = load ptr, ptr %5, align 8, !tbaa !92
  call void @llvm.lifetime.start.p0(i64 16, ptr nonnull %4) #33
  call void @listRewind(ptr noundef %6, ptr noundef nonnull %4) #33
  br label %7

7:                                                ; preds = %9, %2
  %8 = call ptr @listNext(ptr noundef nonnull %4) #33
  %.not = icmp eq ptr %8, null
  br i1 %.not, label %.critedge, label %9

9:                                                ; preds = %7
  %10 = getelementptr inbounds nuw i8, ptr %8, i64 16
  %11 = load ptr, ptr %10, align 8, !tbaa !176
  %12 = load ptr, ptr %11, align 8, !tbaa !178
  %13 = icmp eq ptr %12, %1
  br i1 %13, label %14, label %7, !llvm.loop !183

14:                                               ; preds = %9
  call void @listDelNode(ptr noundef %6, ptr noundef nonnull %8) #33
  %15 = load ptr, ptr %5, align 8, !tbaa !92
  call void @llvm.lifetime.start.p0(i64 16, ptr nonnull %3) #33
  %16 = load i64, ptr getelementptr inbounds nuw (i8, ptr @server, i64 7896), align 8, !tbaa !142
  %17 = shl nsw i64 %16, 1
  %18 = call i64 @mstime() #33
  call void @listRewind(ptr noundef %15, ptr noundef nonnull %3) #33
  %19 = call ptr @listNext(ptr noundef nonnull %3) #33
  %.not7.i = icmp eq ptr %19, null
  br i1 %.not7.i, label %clusterNodeCleanupFailureReports.exit, label %.lr.ph.i

.lr.ph.i:                                         ; preds = %14, %28
  %20 = phi ptr [ %29, %28 ], [ %19, %14 ]
  %21 = getelementptr inbounds nuw i8, ptr %20, i64 16
  %22 = load ptr, ptr %21, align 8, !tbaa !176
  %23 = getelementptr inbounds nuw i8, ptr %22, i64 8
  %24 = load i64, ptr %23, align 8, !tbaa !181
  %25 = sub nsw i64 %18, %24
  %26 = icmp sgt i64 %25, %17
  br i1 %26, label %27, label %28

27:                                               ; preds = %.lr.ph.i
  call void @listDelNode(ptr noundef %15, ptr noundef nonnull %20) #33
  br label %28

28:                                               ; preds = %27, %.lr.ph.i
  %29 = call ptr @listNext(ptr noundef nonnull %3) #33
  %.not.i = icmp eq ptr %29, null
  br i1 %.not.i, label %clusterNodeCleanupFailureReports.exit, label %.lr.ph.i, !llvm.loop !182

clusterNodeCleanupFailureReports.exit:            ; preds = %28, %14
  call void @llvm.lifetime.end.p0(i64 16, ptr nonnull %3) #33
  br label %.critedge

.critedge:                                        ; preds = %7, %clusterNodeCleanupFailureReports.exit
  %.0 = phi i32 [ 1, %clusterNodeCleanupFailureReports.exit ], [ 0, %7 ]
  call void @llvm.lifetime.end.p0(i64 16, ptr nonnull %4) #33
  ret i32 %.0
}